; ModuleID = '38/1671.c'
source_filename = "38/1671.c"
target datalayout = "e-m:e-p270:32:32-p271:32:32-p272:64:64-i64:64-f80:128-n8:16:32:64-S128"
target triple = "x86_64-pc-linux-gnu"

@.str = private unnamed_addr constant [3 x i8] c"%d\00", align 1
@.str.1 = private unnamed_addr constant [4 x i8] c"%lf\00", align 1
@.str.2 = private unnamed_addr constant [7 x i8] c"%.5lf\0A\00", align 1

; Function Attrs: noinline nounwind uwtable
define dso_local i32 @main(i32 %0, i8** %1) #0 {
  %3 = alloca i32, align 4
  %4 = alloca i32, align 4
  %5 = alloca i8**, align 8
  %6 = alloca i32, align 4
  %7 = alloca i32, align 4
  %8 = alloca i32, align 4
  %9 = alloca i32, align 4
  %10 = alloca [100 x double], align 16
  %11 = alloca [100 x double], align 16
  %12 = alloca double, align 8
  %13 = alloca double, align 8
  %14 = alloca double, align 8
  %15 = alloca double, align 8
  %16 = alloca double, align 8
  store i32 0, i32* %3, align 4
  store i32 %0, i32* %4, align 4
  store i8** %1, i8*** %5, align 8
  store double 0.000000e+00, double* %14, align 8
  store double 0.000000e+00, double* %15, align 8
  %17 = call i32 (i8*, ...) @__isoc99_scanf(i8* getelementptr inbounds ([3 x i8], [3 x i8]* @.str, i64 0, i64 0), i32* %6)
  store i32 0, i32* %8, align 4
  br label %18

18:                                               ; preds = %86, %2
  %19 = load i32, i32* %8, align 4
  %20 = load i32, i32* %6, align 4
  %21 = icmp slt i32 %19, %20
  br i1 %21, label %22, label %89

22:                                               ; preds = %18
  store double 0.000000e+00, double* %15, align 8
  store double 0.000000e+00, double* %14, align 8
  %23 = call i32 (i8*, ...) @__isoc99_scanf(i8* getelementptr inbounds ([3 x i8], [3 x i8]* @.str, i64 0, i64 0), i32* %7)
  store i32 0, i32* %9, align 4
  br label %24

24:                                               ; preds = %39, %22
  %25 = load i32, i32* %9, align 4
  %26 = load i32, i32* %7, align 4
  %27 = icmp slt i32 %25, %26
  br i1 %27, label %28, label %42

28:                                               ; preds = %24
  %29 = load i32, i32* %9, align 4
  %30 = sext i32 %29 to i64
  %31 = getelementptr inbounds [100 x double], [100 x double]* %10, i64 0, i64 %30
  %32 = call i32 (i8*, ...) @__isoc99_scanf(i8* getelementptr inbounds ([4 x i8], [4 x i8]* @.str.1, i64 0, i64 0), double* %31)
  %33 = load double, double* %14, align 8
  %34 = load i32, i32* %9, align 4
  %35 = sext i32 %34 to i64
  %36 = getelementptr inbounds [100 x double], [100 x double]* %10, i64 0, i64 %35
  %37 = load double, double* %36, align 8
  %38 = fadd double %33, %37
  store double %38, double* %14, align 8
  br label %39

39:                                               ; preds = %28
  %40 = load i32, i32* %9, align 4
  %41 = add nsw i32 %40, 1
  store i32 %41, i32* %9, align 4
  br label %24

42:                                               ; preds = %24
  %43 = load double, double* %14, align 8
  %44 = load i32, i32* %7, align 4
  %45 = sitofp i32 %44 to double
  %46 = fdiv double %43, %45
  store double %46, double* %12, align 8
  store i32 0, i32* %9, align 4
  br label %47

47:                                               ; preds = %74, %42
  %48 = load i32, i32* %9, align 4
  %49 = load i32, i32* %7, align 4
  %50 = icmp slt i32 %48, %49
  br i1 %50, label %51, label %77

51:                                               ; preds = %47
  %52 = load i32, i32* %9, align 4
  %53 = sext i32 %52 to i64
  %54 = getelementptr inbounds [100 x double], [100 x double]* %10, i64 0, i64 %53
  %55 = load double, double* %54, align 8
  %56 = load double, double* %12, align 8
  %57 = fsub double %55, %56
  %58 = load i32, i32* %9, align 4
  %59 = sext i32 %58 to i64
  %60 = getelementptr inbounds [100 x double], [100 x double]* %10, i64 0, i64 %59
  %61 = load double, double* %60, align 8
  %62 = load double, double* %12, align 8
  %63 = fsub double %61, %62
  %64 = fmul double %57, %63
  %65 = load i32, i32* %9, align 4
  %66 = sext i32 %65 to i64
  %67 = getelementptr inbounds [100 x double], [100 x double]* %11, i64 0, i64 %66
  store double %64, double* %67, align 8
  %68 = load double, double* %15, align 8
  %69 = load i32, i32* %9, align 4
  %70 = sext i32 %69 to i64
  %71 = getelementptr inbounds [100 x double], [100 x double]* %11, i64 0, i64 %70
  %72 = load double, double* %71, align 8
  %73 = fadd double %68, %72
  store double %73, double* %15, align 8
  br label %74

74:                                               ; preds = %51
  %75 = load i32, i32* %9, align 4
  %76 = add nsw i32 %75, 1
  store i32 %76, i32* %9, align 4
  br label %47

77:                                               ; preds = %47
  %78 = load double, double* %15, align 8
  %79 = load i32, i32* %7, align 4
  %80 = sitofp i32 %79 to double
  %81 = fdiv double %78, %80
  store double %81, double* %13, align 8
  %82 = load double, double* %13, align 8
  %83 = call double @sqrt(double %82) #3
  store double %83, double* %16, align 8
  %84 = load double, double* %16, align 8
  %85 = call i32 (i8*, ...) @printf(i8* getelementptr inbounds ([7 x i8], [7 x i8]* @.str.2, i64 0, i64 0), double %84)
  br label %86

86:                                               ; preds = %77
  %87 = load i32, i32* %8, align 4
  %88 = add nsw i32 %87, 1
  store i32 %88, i32* %8, align 4
  br label %18

89:                                               ; preds = %18
  ret i32 0
}

declare dso_local i32 @__isoc99_scanf(i8*, ...) #1

; Function Attrs: nounwind
declare dso_local double @sqrt(double) #2

declare dso_local i32 @printf(i8*, ...) #1


!llvm.module.flags = !{!0}
!llvm.ident = !{!1}

!0 = !{i32 1, !"wchar_size", i32 4}
!1 = !{!"clang version 10.0.0-4ubuntu1 "}
